
State code.elf:     file format elf32-avr

Sections:
Idx Name          Size      VMA       LMA       File off  Algn
  0 .data         00000000  00800100  00800100  00000184  2**0
                  ALLOC, LOAD, DATA
  1 .text         000000a4  00000000  00000000  00000054  2**1
                  CONTENTS, ALLOC, LOAD, READONLY, CODE
  2 .comment      0000002f  00000000  00000000  00000184  2**0
                  CONTENTS, READONLY
  3 .debug_aranges 00000030  00000000  00000000  000001b3  2**0
                  CONTENTS, READONLY, DEBUGGING
  4 .debug_info   00000c44  00000000  00000000  000001e3  2**0
                  CONTENTS, READONLY, DEBUGGING
  5 .debug_abbrev 00000888  00000000  00000000  00000e27  2**0
                  CONTENTS, READONLY, DEBUGGING
  6 .debug_line   00000316  00000000  00000000  000016af  2**0
                  CONTENTS, READONLY, DEBUGGING
  7 .debug_frame  00000044  00000000  00000000  000019c8  2**2
                  CONTENTS, READONLY, DEBUGGING
  8 .debug_str    0000028a  00000000  00000000  00001a0c  2**0
                  CONTENTS, READONLY, DEBUGGING
  9 .debug_loc    00000175  00000000  00000000  00001c96  2**0
                  CONTENTS, READONLY, DEBUGGING
 10 .debug_ranges 00000020  00000000  00000000  00001e0b  2**0
                  CONTENTS, READONLY, DEBUGGING
 11 .text         00000004  0000012c  0000012c  00000180  2**1
                  CONTENTS, ALLOC, LOAD, READONLY, CODE
 12 .note.gnu.avr.deviceinfo 0000003c  00000000  00000000  00001e2c  2**2
                  CONTENTS, READONLY, DEBUGGING
 13 .text.loopCheck 0000003a  000000f2  000000f2  00000146  2**1
                  CONTENTS, ALLOC, LOAD, READONLY, CODE
 14 .text.main    0000004e  000000a4  000000a4  000000f8  2**1
                  CONTENTS, ALLOC, LOAD, READONLY, CODE

Disassembly of section .text:

00000000 <__vectors>:
   0:	0c 94 46 00 	jmp	0x8c	; 0x8c <__ctors_end>
   4:	0c 94 96 00 	jmp	0x12c	; 0x12c <__bad_interrupt>
   8:	0c 94 96 00 	jmp	0x12c	; 0x12c <__bad_interrupt>
   c:	0c 94 96 00 	jmp	0x12c	; 0x12c <__bad_interrupt>
  10:	0c 94 96 00 	jmp	0x12c	; 0x12c <__bad_interrupt>
  14:	0c 94 96 00 	jmp	0x12c	; 0x12c <__bad_interrupt>
  18:	0c 94 96 00 	jmp	0x12c	; 0x12c <__bad_interrupt>
  1c:	0c 94 96 00 	jmp	0x12c	; 0x12c <__bad_interrupt>
  20:	0c 94 96 00 	jmp	0x12c	; 0x12c <__bad_interrupt>
  24:	0c 94 96 00 	jmp	0x12c	; 0x12c <__bad_interrupt>
  28:	0c 94 96 00 	jmp	0x12c	; 0x12c <__bad_interrupt>
  2c:	0c 94 96 00 	jmp	0x12c	; 0x12c <__bad_interrupt>
  30:	0c 94 96 00 	jmp	0x12c	; 0x12c <__bad_interrupt>
  34:	0c 94 96 00 	jmp	0x12c	; 0x12c <__bad_interrupt>
  38:	0c 94 96 00 	jmp	0x12c	; 0x12c <__bad_interrupt>
  3c:	0c 94 96 00 	jmp	0x12c	; 0x12c <__bad_interrupt>
  40:	0c 94 96 00 	jmp	0x12c	; 0x12c <__bad_interrupt>
  44:	0c 94 96 00 	jmp	0x12c	; 0x12c <__bad_interrupt>
  48:	0c 94 96 00 	jmp	0x12c	; 0x12c <__bad_interrupt>
  4c:	0c 94 96 00 	jmp	0x12c	; 0x12c <__bad_interrupt>
  50:	0c 94 96 00 	jmp	0x12c	; 0x12c <__bad_interrupt>
  54:	0c 94 96 00 	jmp	0x12c	; 0x12c <__bad_interrupt>
  58:	0c 94 96 00 	jmp	0x12c	; 0x12c <__bad_interrupt>
  5c:	0c 94 96 00 	jmp	0x12c	; 0x12c <__bad_interrupt>
  60:	0c 94 96 00 	jmp	0x12c	; 0x12c <__bad_interrupt>
  64:	0c 94 96 00 	jmp	0x12c	; 0x12c <__bad_interrupt>
  68:	0c 94 96 00 	jmp	0x12c	; 0x12c <__bad_interrupt>
  6c:	0c 94 96 00 	jmp	0x12c	; 0x12c <__bad_interrupt>
  70:	0c 94 96 00 	jmp	0x12c	; 0x12c <__bad_interrupt>
  74:	0c 94 96 00 	jmp	0x12c	; 0x12c <__bad_interrupt>
  78:	0c 94 96 00 	jmp	0x12c	; 0x12c <__bad_interrupt>
  7c:	0c 94 96 00 	jmp	0x12c	; 0x12c <__bad_interrupt>
  80:	0c 94 96 00 	jmp	0x12c	; 0x12c <__bad_interrupt>
  84:	0c 94 96 00 	jmp	0x12c	; 0x12c <__bad_interrupt>
  88:	0c 94 96 00 	jmp	0x12c	; 0x12c <__bad_interrupt>

0000008c <__ctors_end>:
  8c:	11 24       	eor	r1, r1
  8e:	1f be       	out	0x3f, r1	; 63
  90:	cf ef       	ldi	r28, 0xFF	; 255
  92:	d0 e1       	ldi	r29, 0x10	; 16
  94:	de bf       	out	0x3e, r29	; 62
  96:	cd bf       	out	0x3d, r28	; 61
  98:	0e 94 52 00 	call	0xa4	; 0xa4 <_etext>
  9c:	0c 94 50 00 	jmp	0xa0	; 0xa0 <_exit>

000000a0 <_exit>:
  a0:	f8 94       	cli

000000a2 <__stop_program>:
  a2:	ff cf       	rjmp	.-2      	; 0xa2 <__stop_program>

Disassembly of section .text:

0000012c <__bad_interrupt>:
 12c:	0c 94 00 00 	jmp	0	; 0x0 <__TEXT_REGION_ORIGIN__>

Disassembly of section .text.loopCheck:

000000f2 <loopCheck>:
	for (int i=0; i<ms; i++) {
		_delay_ms( 1 );		// library function (max 30 ms at 8MHz)
	}
}

enum state loopCheck(int ms, enum state currentState) {
  f2:	ac 01       	movw	r20, r24
  f4:	86 2f       	mov	r24, r22
	for (int i=0; i<ms; i += 10) {
  f6:	20 e0       	ldi	r18, 0x00	; 0
  f8:	30 e0       	ldi	r19, 0x00	; 0
  fa:	10 c0       	rjmp	.+32     	; 0x11c <loopCheck+0x2a>
	#else
		//round up by default
		__ticks_dc = (uint32_t)(ceil(fabs(__tmp)));
	#endif

	__builtin_avr_delay_cycles(__ticks_dc);
  fc:	ef e1       	ldi	r30, 0x1F	; 31
  fe:	fe e4       	ldi	r31, 0x4E	; 78
 100:	31 97       	sbiw	r30, 0x01	; 1
 102:	f1 f7       	brne	.-4      	; 0x100 <loopCheck+0xe>
 104:	00 c0       	rjmp	.+0      	; 0x106 <loopCheck+0x14>
 106:	00 00       	nop
		_delay_ms( 10 );
		
		if (PINC == 0b00000001)
 108:	93 b3       	in	r25, 0x13	; 19
 10a:	91 30       	cpi	r25, 0x01	; 1
 10c:	29 f4       	brne	.+10     	; 0x118 <loopCheck+0x26>
		{
			if (currentState == fast){
 10e:	81 30       	cpi	r24, 0x01	; 1
 110:	49 f0       	breq	.+18     	; 0x124 <loopCheck+0x32>
				currentState = slow;
			} else if (currentState == slow){
 112:	88 23       	and	r24, r24
 114:	49 f0       	breq	.+18     	; 0x128 <loopCheck+0x36>
 116:	08 95       	ret
		_delay_ms( 1 );		// library function (max 30 ms at 8MHz)
	}
}

enum state loopCheck(int ms, enum state currentState) {
	for (int i=0; i<ms; i += 10) {
 118:	26 5f       	subi	r18, 0xF6	; 246
 11a:	3f 4f       	sbci	r19, 0xFF	; 255
 11c:	24 17       	cp	r18, r20
 11e:	35 07       	cpc	r19, r21
 120:	6c f3       	brlt	.-38     	; 0xfc <loopCheck+0xa>
 122:	08 95       	ret
		_delay_ms( 10 );
		
		if (PINC == 0b00000001)
		{
			if (currentState == fast){
				currentState = slow;
 124:	80 e0       	ldi	r24, 0x00	; 0
 126:	08 95       	ret
			} else if (currentState == slow){
				currentState = fast;
 128:	81 e0       	ldi	r24, 0x01	; 1
			return currentState;
		}
	}
	
	return currentState;
}
 12a:	08 95       	ret

Disassembly of section .text.main:

000000a4 <main>:

void wait(int ms) {
	for (int i=0; i<ms; i++) {
		_delay_ms( 1 );		// library function (max 30 ms at 8MHz)
	}
}
  a4:	8f ef       	ldi	r24, 0xFF	; 255
  a6:	81 bb       	out	0x11, r24	; 17
  a8:	80 e0       	ldi	r24, 0x00	; 0
  aa:	81 11       	cpse	r24, r1
  ac:	10 c0       	rjmp	.+32     	; 0xce <main+0x2a>
  ae:	90 e8       	ldi	r25, 0x80	; 128
  b0:	92 bb       	out	0x12, r25	; 18
  b2:	68 2f       	mov	r22, r24
  b4:	88 ee       	ldi	r24, 0xE8	; 232
  b6:	93 e0       	ldi	r25, 0x03	; 3
  b8:	0e 94 79 00 	call	0xf2	; 0xf2 <loopCheck>
  bc:	81 11       	cpse	r24, r1
  be:	f5 cf       	rjmp	.-22     	; 0xaa <main+0x6>
  c0:	12 ba       	out	0x12, r1	; 18
  c2:	68 2f       	mov	r22, r24
  c4:	88 ee       	ldi	r24, 0xE8	; 232
  c6:	93 e0       	ldi	r25, 0x03	; 3
  c8:	0e 94 79 00 	call	0xf2	; 0xf2 <loopCheck>
  cc:	ee cf       	rjmp	.-36     	; 0xaa <main+0x6>
  ce:	81 30       	cpi	r24, 0x01	; 1
  d0:	61 f7       	brne	.-40     	; 0xaa <main+0x6>
  d2:	90 e8       	ldi	r25, 0x80	; 128
  d4:	92 bb       	out	0x12, r25	; 18
  d6:	68 2f       	mov	r22, r24
  d8:	8a ef       	ldi	r24, 0xFA	; 250
  da:	90 e0       	ldi	r25, 0x00	; 0
  dc:	0e 94 79 00 	call	0xf2	; 0xf2 <loopCheck>
  e0:	81 30       	cpi	r24, 0x01	; 1
  e2:	19 f7       	brne	.-58     	; 0xaa <main+0x6>
  e4:	12 ba       	out	0x12, r1	; 18
  e6:	68 2f       	mov	r22, r24
  e8:	8a ef       	ldi	r24, 0xFA	; 250
  ea:	90 e0       	ldi	r25, 0x00	; 0
  ec:	0e 94 79 00 	call	0xf2	; 0xf2 <loopCheck>
  f0:	dc cf       	rjmp	.-72     	; 0xaa <main+0x6>
