
Guitar_Hero.elf:     file format elf32-avr

Sections:
Idx Name          Size      VMA       LMA       File off  Algn
  0 .data         00000000  00800100  00000674  00000708  2**0
                  ALLOC, LOAD, DATA
  1 .text         000000f0  00000000  00000000  00000094  2**1
                  CONTENTS, ALLOC, LOAD, READONLY, CODE
  2 .comment      0000002f  00000000  00000000  00000708  2**0
                  CONTENTS, READONLY
  3 .debug_aranges 000000d0  00000000  00000000  00000737  2**0
                  CONTENTS, READONLY, DEBUGGING
  4 .debug_info   00001613  00000000  00000000  00000807  2**0
                  CONTENTS, READONLY, DEBUGGING
  5 .debug_abbrev 00000a33  00000000  00000000  00001e1a  2**0
                  CONTENTS, READONLY, DEBUGGING
  6 .debug_line   0000060b  00000000  00000000  0000284d  2**0
                  CONTENTS, READONLY, DEBUGGING
  7 .debug_frame  00000198  00000000  00000000  00002e58  2**2
                  CONTENTS, READONLY, DEBUGGING
  8 .debug_str    000002e7  00000000  00000000  00002ff0  2**0
                  CONTENTS, READONLY, DEBUGGING
  9 .debug_loc    00000182  00000000  00000000  000032d7  2**0
                  CONTENTS, READONLY, DEBUGGING
 10 .debug_ranges 00000090  00000000  00000000  00003459  2**0
                  CONTENTS, READONLY, DEBUGGING
 11 .text         00000004  00000648  00000648  000006dc  2**1
                  CONTENTS, ALLOC, LOAD, READONLY, CODE
 12 .note.gnu.avr.deviceinfo 0000003c  00000000  00000000  000034ec  2**2
                  CONTENTS, READONLY, DEBUGGING
 13 .text.__vector_15 0000002e  000004d8  000004d8  0000056c  2**1
                  CONTENTS, ALLOC, LOAD, READONLY, CODE
 14 .text.initTimer 00000012  000005ca  000005ca  0000065e  2**1
                  CONTENTS, ALLOC, LOAD, READONLY, CODE
 15 .text.pwmInit 0000002e  00000506  00000506  0000059a  2**1
                  CONTENTS, ALLOC, LOAD, READONLY, CODE
 16 .text.main    00000082  000002dc  000002dc  00000370  2**1
                  CONTENTS, ALLOC, LOAD, READONLY, CODE
 17 .bss.sensorTicks 00000002  00800128  00800128  00000708  2**0
                  ALLOC
 18 .bss.updateTicks 00000002  0080012a  0080012a  00000708  2**0
                  ALLOC
 19 .bss.timerOverflow 00000002  0080012c  0080012c  00000708  2**0
                  ALLOC
 20 .text.updateLight 00000014  000005b6  000005b6  0000064a  2**1
                  CONTENTS, ALLOC, LOAD, READONLY, CODE
 21 .text.playFirstSong 00000092  000001c4  000001c4  00000258  2**1
                  CONTENTS, ALLOC, LOAD, READONLY, CODE
 22 .bss.currentLight 00000002  0080012e  0080012e  00000708  2**0
                  ALLOC
 23 .data.firstSong 00000028  00800100  0000064c  000006e0  2**0
                  CONTENTS, ALLOC, LOAD, DATA
 24 .text.TMP_init_meassure 0000000a  00000630  00000630  000006c4  2**1
                  CONTENTS, ALLOC, LOAD, READONLY, CODE
 25 .text.TMP_meassure 0000005e  000003d8  000003d8  0000046c  2**1
                  CONTENTS, ALLOC, LOAD, READONLY, CODE
 26 .text.TMP_isPlaying 00000016  00000574  00000574  00000608  2**1
                  CONTENTS, ALLOC, LOAD, READONLY, CODE
 27 .bss.numberOfTriggers 00000002  00800130  00800130  00000708  2**0
                  ALLOC
 28 .bss.lastTrigerValue 00000002  00800132  00800132  00000708  2**0
                  ALLOC
 29 .text.initTimer 00000010  000005dc  000005dc  00000670  2**1
                  CONTENTS, ALLOC, LOAD, READONLY, CODE
 30 .text.__vector_8 00000086  00000256  00000256  000002ea  2**1
                  CONTENTS, ALLOC, LOAD, READONLY, CODE
 31 .text.__vector_10 00000016  0000058a  0000058a  0000061e  2**1
                  CONTENTS, ALLOC, LOAD, READONLY, CODE
 32 .text.UTS_Init 0000001e  00000556  00000556  000005ea  2**1
                  CONTENTS, ALLOC, LOAD, READONLY, CODE
 33 .text.UTS_Trigger 00000016  000005a0  000005a0  00000634  2**1
                  CONTENTS, ALLOC, LOAD, READONLY, CODE
 34 .bss.ticksOnTrigger 00000001  00800136  00800136  00000708  2**0
                  ALLOC
 35 .bss.currentDistance 00000002  00800134  00800134  00000708  2**0
                  ALLOC
 36 .text.avrlibc.fplib 0000000e  000005ec  000005ec  00000680  2**1
                  CONTENTS, ALLOC, LOAD, READONLY, CODE
 37 .text.avrlibc.fplib 0000005e  00000436  00000436  000004ca  2**1
                  CONTENTS, ALLOC, LOAD, READONLY, CODE
 38 .text.avrlibc.fplib 0000007a  0000035e  0000035e  000003f2  2**1
                  CONTENTS, ALLOC, LOAD, READONLY, CODE
 39 .text.avrlibc.fplib 00000044  00000494  00000494  00000528  2**1
                  CONTENTS, ALLOC, LOAD, READONLY, CODE
 40 .text.avrlibc.fplib 0000000e  000005fa  000005fa  0000068e  2**1
                  CONTENTS, ALLOC, LOAD, READONLY, CODE
 41 .text.avrlibc.fplib 00000008  0000063a  0000063a  000006ce  2**1
                  CONTENTS, ALLOC, LOAD, READONLY, CODE
 42 .text.avrlibc.fplib 000000d4  000000f0  000000f0  00000184  2**1
                  CONTENTS, ALLOC, LOAD, READONLY, CODE
 43 .text.avrlibc.fplib 0000000c  00000624  00000624  000006b8  2**1
                  CONTENTS, ALLOC, LOAD, READONLY, CODE
 44 .text.avrlibc.fplib 00000006  00000642  00000642  000006d6  2**1
                  CONTENTS, ALLOC, LOAD, READONLY, CODE
 45 .text.avrlibc.fplib 0000000e  00000608  00000608  0000069c  2**1
                  CONTENTS, ALLOC, LOAD, READONLY, CODE
 46 .text.avrlibc.fplib 0000000e  00000616  00000616  000006aa  2**1
                  CONTENTS, ALLOC, LOAD, READONLY, CODE
 47 .text.avrlibc.fplib 00000022  00000534  00000534  000005c8  2**1
                  CONTENTS, ALLOC, LOAD, READONLY, CODE

Disassembly of section .text:

00000000 <__vectors>:
   0:	0c 94 4c 00 	jmp	0x98	; 0x98 <__ctors_end>
   4:	0c 94 24 03 	jmp	0x648	; 0x648 <__bad_interrupt>
   8:	0c 94 24 03 	jmp	0x648	; 0x648 <__bad_interrupt>
   c:	0c 94 24 03 	jmp	0x648	; 0x648 <__bad_interrupt>
  10:	0c 94 24 03 	jmp	0x648	; 0x648 <__bad_interrupt>
  14:	0c 94 24 03 	jmp	0x648	; 0x648 <__bad_interrupt>
  18:	0c 94 24 03 	jmp	0x648	; 0x648 <__bad_interrupt>
  1c:	0c 94 24 03 	jmp	0x648	; 0x648 <__bad_interrupt>
  20:	0c 94 2b 01 	jmp	0x256	; 0x256 <__vector_8>
  24:	0c 94 24 03 	jmp	0x648	; 0x648 <__bad_interrupt>
  28:	0c 94 c5 02 	jmp	0x58a	; 0x58a <__vector_10>
  2c:	0c 94 24 03 	jmp	0x648	; 0x648 <__bad_interrupt>
  30:	0c 94 24 03 	jmp	0x648	; 0x648 <__bad_interrupt>
  34:	0c 94 24 03 	jmp	0x648	; 0x648 <__bad_interrupt>
  38:	0c 94 24 03 	jmp	0x648	; 0x648 <__bad_interrupt>
  3c:	0c 94 6c 02 	jmp	0x4d8	; 0x4d8 <__vector_15>
  40:	0c 94 24 03 	jmp	0x648	; 0x648 <__bad_interrupt>
  44:	0c 94 24 03 	jmp	0x648	; 0x648 <__bad_interrupt>
  48:	0c 94 24 03 	jmp	0x648	; 0x648 <__bad_interrupt>
  4c:	0c 94 24 03 	jmp	0x648	; 0x648 <__bad_interrupt>
  50:	0c 94 24 03 	jmp	0x648	; 0x648 <__bad_interrupt>
  54:	0c 94 24 03 	jmp	0x648	; 0x648 <__bad_interrupt>
  58:	0c 94 24 03 	jmp	0x648	; 0x648 <__bad_interrupt>
  5c:	0c 94 24 03 	jmp	0x648	; 0x648 <__bad_interrupt>
  60:	0c 94 24 03 	jmp	0x648	; 0x648 <__bad_interrupt>
  64:	0c 94 24 03 	jmp	0x648	; 0x648 <__bad_interrupt>
  68:	0c 94 24 03 	jmp	0x648	; 0x648 <__bad_interrupt>
  6c:	0c 94 24 03 	jmp	0x648	; 0x648 <__bad_interrupt>
  70:	0c 94 24 03 	jmp	0x648	; 0x648 <__bad_interrupt>
  74:	0c 94 24 03 	jmp	0x648	; 0x648 <__bad_interrupt>
  78:	0c 94 24 03 	jmp	0x648	; 0x648 <__bad_interrupt>
  7c:	0c 94 24 03 	jmp	0x648	; 0x648 <__bad_interrupt>
  80:	0c 94 24 03 	jmp	0x648	; 0x648 <__bad_interrupt>
  84:	0c 94 24 03 	jmp	0x648	; 0x648 <__bad_interrupt>
  88:	0c 94 24 03 	jmp	0x648	; 0x648 <__bad_interrupt>

0000008c <.dinit>:
  8c:	01 00       	.word	0x0001	; ????
  8e:	01 28       	or	r0, r1
  90:	00 06       	cpc	r0, r16
  92:	4c 01       	movw	r8, r24
  94:	28 01       	movw	r4, r16
  96:	37 80       	ldd	r3, Z+7	; 0x07

00000098 <__ctors_end>:
  98:	11 24       	eor	r1, r1
  9a:	1f be       	out	0x3f, r1	; 63
  9c:	cf ef       	ldi	r28, 0xFF	; 255
  9e:	d0 e1       	ldi	r29, 0x10	; 16
  a0:	de bf       	out	0x3e, r29	; 62
  a2:	cd bf       	out	0x3d, r28	; 61

000000a4 <__do_copy_data>:
  a4:	ec e8       	ldi	r30, 0x8C	; 140
  a6:	f0 e0       	ldi	r31, 0x00	; 0
  a8:	40 e0       	ldi	r20, 0x00	; 0
  aa:	19 c0       	rjmp	.+50     	; 0xde <__do_clear_bss+0x8>
  ac:	b7 91       	elpm	r27, Z+
  ae:	a7 91       	elpm	r26, Z+
  b0:	37 91       	elpm	r19, Z+
  b2:	27 91       	elpm	r18, Z+
  b4:	07 91       	elpm	r16, Z+
  b6:	07 fd       	sbrc	r16, 7
  b8:	0e c0       	rjmp	.+28     	; 0xd6 <__do_clear_bss>
  ba:	97 91       	elpm	r25, Z+
  bc:	87 91       	elpm	r24, Z+
  be:	ef 01       	movw	r28, r30
  c0:	f9 2f       	mov	r31, r25
  c2:	e8 2f       	mov	r30, r24
  c4:	0b bf       	out	0x3b, r16	; 59
  c6:	07 90       	elpm	r0, Z+
  c8:	0d 92       	st	X+, r0
  ca:	a2 17       	cp	r26, r18
  cc:	b3 07       	cpc	r27, r19
  ce:	d9 f7       	brne	.-10     	; 0xc6 <__do_copy_data+0x22>
  d0:	fe 01       	movw	r30, r28
  d2:	1b be       	out	0x3b, r1	; 59
  d4:	04 c0       	rjmp	.+8      	; 0xde <__do_clear_bss+0x8>

000000d6 <__do_clear_bss>:
  d6:	1d 92       	st	X+, r1
  d8:	a2 17       	cp	r26, r18
  da:	b3 07       	cpc	r27, r19
  dc:	e1 f7       	brne	.-8      	; 0xd6 <__do_clear_bss>
  de:	e8 39       	cpi	r30, 0x98	; 152
  e0:	f4 07       	cpc	r31, r20
  e2:	21 f7       	brne	.-56     	; 0xac <__do_copy_data+0x8>
  e4:	0e 94 6e 01 	call	0x2dc	; 0x2dc <main>
  e8:	0c 94 76 00 	jmp	0xec	; 0xec <_exit>

000000ec <_exit>:
  ec:	f8 94       	cli

000000ee <__stop_program>:
  ee:	ff cf       	rjmp	.-2      	; 0xee <__stop_program>

Disassembly of section .text:

00000648 <__bad_interrupt>:
 648:	0c 94 00 00 	jmp	0	; 0x0 <__TEXT_REGION_ORIGIN__>

Disassembly of section .text.__vector_15:

000004d8 <__vector_15>:
int seconds = 0;

int timerRunning = 0;

ISR ( TIMER0_COMP_vect )
{
 4d8:	1f 92       	push	r1
 4da:	0f 92       	push	r0
 4dc:	0f b6       	in	r0, 0x3f	; 63
 4de:	0f 92       	push	r0
 4e0:	11 24       	eor	r1, r1
 4e2:	8f 93       	push	r24
 4e4:	9f 93       	push	r25
	timerOverflow++;
 4e6:	80 91 2c 01 	lds	r24, 0x012C	; 0x80012c <timerOverflow>
 4ea:	90 91 2d 01 	lds	r25, 0x012D	; 0x80012d <timerOverflow+0x1>
 4ee:	01 96       	adiw	r24, 0x01	; 1
 4f0:	90 93 2d 01 	sts	0x012D, r25	; 0x80012d <timerOverflow+0x1>
 4f4:	80 93 2c 01 	sts	0x012C, r24	; 0x80012c <timerOverflow>
		
}
 4f8:	9f 91       	pop	r25
 4fa:	8f 91       	pop	r24
 4fc:	0f 90       	pop	r0
 4fe:	0f be       	out	0x3f, r0	; 63
 500:	0f 90       	pop	r0
 502:	1f 90       	pop	r1
 504:	18 95       	reti

Disassembly of section .text.initTimer:

000005ca <initTimer>:
	return 1;
}

void initTimer()
{
	OCR0 = TICK_MS;
 5ca:	8a ef       	ldi	r24, 0xFA	; 250
 5cc:	81 bf       	out	0x31, r24	; 49
	TIMSK |= (1<<7);
 5ce:	87 b7       	in	r24, 0x37	; 55
 5d0:	80 68       	ori	r24, 0x80	; 128
 5d2:	87 bf       	out	0x37, r24	; 55
	TCCR0 = 0b00000011;
 5d4:	83 e0       	ldi	r24, 0x03	; 3
 5d6:	83 bf       	out	0x33, r24	; 51
	sei();
 5d8:	78 94       	sei
 5da:	08 95       	ret

Disassembly of section .text.pwmInit:

00000506 <pwmInit>:
}

void pwmInit() {
	DDRE = 0b0111111;
 506:	8f e3       	ldi	r24, 0x3F	; 63
 508:	82 b9       	out	0x02, r24	; 2
	TCNT3 = 0;
 50a:	10 92 89 00 	sts	0x0089, r1	; 0x800089 <__TEXT_REGION_LENGTH__+0x7e0089>
 50e:	10 92 88 00 	sts	0x0088, r1	; 0x800088 <__TEXT_REGION_LENGTH__+0x7e0088>
	
	TCCR3A = 0b00101001;
 512:	89 e2       	ldi	r24, 0x29	; 41
 514:	80 93 8b 00 	sts	0x008B, r24	; 0x80008b <__TEXT_REGION_LENGTH__+0x7e008b>
	TCCR3B = 0b01010010;
 518:	82 e5       	ldi	r24, 0x52	; 82
 51a:	80 93 8a 00 	sts	0x008A, r24	; 0x80008a <__TEXT_REGION_LENGTH__+0x7e008a>
	
	OCR3A = 1000;
 51e:	88 ee       	ldi	r24, 0xE8	; 232
 520:	93 e0       	ldi	r25, 0x03	; 3
 522:	90 93 87 00 	sts	0x0087, r25	; 0x800087 <__TEXT_REGION_LENGTH__+0x7e0087>
 526:	80 93 86 00 	sts	0x0086, r24	; 0x800086 <__TEXT_REGION_LENGTH__+0x7e0086>
	OCR3B = 0;
 52a:	10 92 85 00 	sts	0x0085, r1	; 0x800085 <__TEXT_REGION_LENGTH__+0x7e0085>
 52e:	10 92 84 00 	sts	0x0084, r1	; 0x800084 <__TEXT_REGION_LENGTH__+0x7e0084>
 532:	08 95       	ret

Disassembly of section .text.main:

000002dc <main>:
int updateTicks = 0;
int sensorTicks = 0;

int main(void)
{
	DDRF = 0xFF;
 2dc:	8f ef       	ldi	r24, 0xFF	; 255
 2de:	80 93 61 00 	sts	0x0061, r24	; 0x800061 <__TEXT_REGION_LENGTH__+0x7e0061>
	DDRB = 0x00;
 2e2:	17 ba       	out	0x17, r1	; 23
	DDRD = 0xFF;
 2e4:	81 bb       	out	0x11, r24	; 17
	
	initTimer();
 2e6:	0e 94 e5 02 	call	0x5ca	; 0x5ca <initTimer>
	pwmInit();
 2ea:	0e 94 83 02 	call	0x506	; 0x506 <pwmInit>
	TMP_init_meassure();
 2ee:	0e 94 18 03 	call	0x630	; 0x630 <TMP_init_meassure>
	
	TIMSK = 0b01000010;
 2f2:	82 e4       	ldi	r24, 0x42	; 66
 2f4:	87 bf       	out	0x37, r24	; 55
	
	while (1) {
		
		if ( (timerOverflow - updateTicks) >= 1000 )
 2f6:	80 91 2c 01 	lds	r24, 0x012C	; 0x80012c <timerOverflow>
 2fa:	90 91 2d 01 	lds	r25, 0x012D	; 0x80012d <timerOverflow+0x1>
 2fe:	20 91 2a 01 	lds	r18, 0x012A	; 0x80012a <updateTicks>
 302:	30 91 2b 01 	lds	r19, 0x012B	; 0x80012b <updateTicks+0x1>
 306:	82 1b       	sub	r24, r18
 308:	93 0b       	sbc	r25, r19
 30a:	88 3e       	cpi	r24, 0xE8	; 232
 30c:	93 40       	sbci	r25, 0x03	; 3
 30e:	54 f0       	brlt	.+20     	; 0x324 <main+0x48>
		{
			updateLight();
 310:	0e 94 db 02 	call	0x5b6	; 0x5b6 <updateLight>
			
			updateTicks = timerOverflow;
 314:	80 91 2c 01 	lds	r24, 0x012C	; 0x80012c <timerOverflow>
 318:	90 91 2d 01 	lds	r25, 0x012D	; 0x80012d <timerOverflow+0x1>
 31c:	90 93 2b 01 	sts	0x012B, r25	; 0x80012b <updateTicks+0x1>
 320:	80 93 2a 01 	sts	0x012A, r24	; 0x80012a <updateTicks>
		}
		
		if( (timerOverflow - sensorTicks) >= 100)
 324:	80 91 2c 01 	lds	r24, 0x012C	; 0x80012c <timerOverflow>
 328:	90 91 2d 01 	lds	r25, 0x012D	; 0x80012d <timerOverflow+0x1>
 32c:	20 91 28 01 	lds	r18, 0x0128	; 0x800128 <sensorTicks>
 330:	30 91 29 01 	lds	r19, 0x0129	; 0x800129 <sensorTicks+0x1>
 334:	82 1b       	sub	r24, r18
 336:	93 0b       	sbc	r25, r19
 338:	84 36       	cpi	r24, 0x64	; 100
 33a:	91 05       	cpc	r25, r1
 33c:	6c f0       	brlt	.+26     	; 0x358 <main+0x7c>
		{
			TMP_meassure();
 33e:	0e 94 ec 01 	call	0x3d8	; 0x3d8 <TMP_meassure>
			
			PORTD = TMP_isPlaying();
 342:	0e 94 ba 02 	call	0x574	; 0x574 <TMP_isPlaying>
 346:	82 bb       	out	0x12, r24	; 18
						
			sensorTicks = timerOverflow;
 348:	80 91 2c 01 	lds	r24, 0x012C	; 0x80012c <timerOverflow>
 34c:	90 91 2d 01 	lds	r25, 0x012D	; 0x80012d <timerOverflow+0x1>
 350:	90 93 29 01 	sts	0x0129, r25	; 0x800129 <sensorTicks+0x1>
 354:	80 93 28 01 	sts	0x0128, r24	; 0x800128 <sensorTicks>
		}
		
		playFirstSong();
 358:	0e 94 e2 00 	call	0x1c4	; 0x1c4 <playFirstSong>
		
	}
 35c:	cc cf       	rjmp	.-104    	; 0x2f6 <main+0x1a>

Disassembly of section .text.updateLight:

000005b6 <updateLight>:

/************************************************************************/
/* Method which updates the current light                               */
/************************************************************************/
void updateLight() {
	currentLight++;
 5b6:	80 91 2e 01 	lds	r24, 0x012E	; 0x80012e <currentLight>
 5ba:	90 91 2f 01 	lds	r25, 0x012F	; 0x80012f <currentLight+0x1>
 5be:	01 96       	adiw	r24, 0x01	; 1
 5c0:	90 93 2f 01 	sts	0x012F, r25	; 0x80012f <currentLight+0x1>
 5c4:	80 93 2e 01 	sts	0x012E, r24	; 0x80012e <currentLight>
 5c8:	08 95       	ret

Disassembly of section .text.playFirstSong:

000001c4 <playFirstSong>:
/* light and plays the corresponding frequency. If the button is		*/
/* incorrect the buzzer won't play any frequency.						*/
/************************************************************************/
void playFirstSong() {
		
		if (PINB == 0b00000001 << firstSong[currentLight].lightID && TMP_isPlaying())
 1c4:	26 b3       	in	r18, 0x16	; 22
 1c6:	30 e0       	ldi	r19, 0x00	; 0
 1c8:	e0 91 2e 01 	lds	r30, 0x012E	; 0x80012e <currentLight>
 1cc:	f0 91 2f 01 	lds	r31, 0x012F	; 0x80012f <currentLight+0x1>
 1d0:	ee 0f       	add	r30, r30
 1d2:	ff 1f       	adc	r31, r31
 1d4:	ee 0f       	add	r30, r30
 1d6:	ff 1f       	adc	r31, r31
 1d8:	e0 50       	subi	r30, 0x00	; 0
 1da:	ff 4f       	sbci	r31, 0xFF	; 255
 1dc:	81 e0       	ldi	r24, 0x01	; 1
 1de:	90 e0       	ldi	r25, 0x00	; 0
 1e0:	00 80       	ld	r0, Z
 1e2:	02 c0       	rjmp	.+4      	; 0x1e8 <playFirstSong+0x24>
 1e4:	88 0f       	add	r24, r24
 1e6:	99 1f       	adc	r25, r25
 1e8:	0a 94       	dec	r0
 1ea:	e2 f7       	brpl	.-8      	; 0x1e4 <playFirstSong+0x20>
 1ec:	28 17       	cp	r18, r24
 1ee:	39 07       	cpc	r19, r25
 1f0:	a9 f4       	brne	.+42     	; 0x21c <playFirstSong+0x58>
 1f2:	0e 94 ba 02 	call	0x574	; 0x574 <TMP_isPlaying>
 1f6:	89 2b       	or	r24, r25
 1f8:	89 f0       	breq	.+34     	; 0x21c <playFirstSong+0x58>
		{
			OCR3B = firstSong[currentLight].pwmSignal;
 1fa:	e0 91 2e 01 	lds	r30, 0x012E	; 0x80012e <currentLight>
 1fe:	f0 91 2f 01 	lds	r31, 0x012F	; 0x80012f <currentLight+0x1>
 202:	ee 0f       	add	r30, r30
 204:	ff 1f       	adc	r31, r31
 206:	ee 0f       	add	r30, r30
 208:	ff 1f       	adc	r31, r31
 20a:	e0 50       	subi	r30, 0x00	; 0
 20c:	ff 4f       	sbci	r31, 0xFF	; 255
 20e:	82 81       	ldd	r24, Z+2	; 0x02
 210:	93 81       	ldd	r25, Z+3	; 0x03
 212:	90 93 85 00 	sts	0x0085, r25	; 0x800085 <__TEXT_REGION_LENGTH__+0x7e0085>
 216:	80 93 84 00 	sts	0x0084, r24	; 0x800084 <__TEXT_REGION_LENGTH__+0x7e0084>
 21a:	04 c0       	rjmp	.+8      	; 0x224 <playFirstSong+0x60>
		} else {
			OCR3B = 0x00;
 21c:	10 92 85 00 	sts	0x0085, r1	; 0x800085 <__TEXT_REGION_LENGTH__+0x7e0085>
 220:	10 92 84 00 	sts	0x0084, r1	; 0x800084 <__TEXT_REGION_LENGTH__+0x7e0084>
		}
		
		if (currentLight < (sizeof(firstSong) / sizeof(firstSong[0])))
 224:	80 91 2e 01 	lds	r24, 0x012E	; 0x80012e <currentLight>
 228:	90 91 2f 01 	lds	r25, 0x012F	; 0x80012f <currentLight+0x1>
 22c:	8a 30       	cpi	r24, 0x0A	; 10
 22e:	91 05       	cpc	r25, r1
 230:	88 f4       	brcc	.+34     	; 0x254 <playFirstSong+0x90>
		{	
			PORTF = 0b00000001 << firstSong[currentLight].lightID;
 232:	88 0f       	add	r24, r24
 234:	99 1f       	adc	r25, r25
 236:	88 0f       	add	r24, r24
 238:	99 1f       	adc	r25, r25
 23a:	fc 01       	movw	r30, r24
 23c:	e0 50       	subi	r30, 0x00	; 0
 23e:	ff 4f       	sbci	r31, 0xFF	; 255
 240:	81 e0       	ldi	r24, 0x01	; 1
 242:	90 e0       	ldi	r25, 0x00	; 0
 244:	00 80       	ld	r0, Z
 246:	02 c0       	rjmp	.+4      	; 0x24c <playFirstSong+0x88>
 248:	88 0f       	add	r24, r24
 24a:	99 1f       	adc	r25, r25
 24c:	0a 94       	dec	r0
 24e:	e2 f7       	brpl	.-8      	; 0x248 <playFirstSong+0x84>
 250:	80 93 62 00 	sts	0x0062, r24	; 0x800062 <__TEXT_REGION_LENGTH__+0x7e0062>
 254:	08 95       	ret

Disassembly of section .text.TMP_init_meassure:

00000630 <TMP_init_meassure>:
int lastTrigerValue = 0;
int numberOfTriggers = 0;

void TMP_init_meassure()
{
	UTS_Init();
 630:	0e 94 ab 02 	call	0x556	; 0x556 <UTS_Init>
	
	// Calling the first trigger of the ultrasone sensor
	UTS_Trigger();
 634:	0e 94 d0 02 	call	0x5a0	; 0x5a0 <UTS_Trigger>
 638:	08 95       	ret

Disassembly of section .text.TMP_meassure:

000003d8 <TMP_meassure>:
}

void TMP_meassure()
{
	// Reading the value from the last trigger
	if ( (lastTrigerValue > HAND_TRIGGER_DISTANCE && currentDistance <= HAND_TRIGGER_DISTANCE) ||  
 3d8:	80 91 32 01 	lds	r24, 0x0132	; 0x800132 <lastTrigerValue>
 3dc:	90 91 33 01 	lds	r25, 0x0133	; 0x800133 <lastTrigerValue+0x1>
 3e0:	81 32       	cpi	r24, 0x21	; 33
 3e2:	91 05       	cpc	r25, r1
 3e4:	3c f0       	brlt	.+14     	; 0x3f4 <TMP_meassure+0x1c>
 3e6:	20 91 34 01 	lds	r18, 0x0134	; 0x800134 <currentDistance>
 3ea:	30 91 35 01 	lds	r19, 0x0135	; 0x800135 <currentDistance+0x1>
 3ee:	21 32       	cpi	r18, 0x21	; 33
 3f0:	31 05       	cpc	r19, r1
 3f2:	44 f0       	brlt	.+16     	; 0x404 <__LOCK_REGION_LENGTH__+0x4>
 3f4:	81 97       	sbiw	r24, 0x21	; 33
 3f6:	5c f4       	brge	.+22     	; 0x40e <__LOCK_REGION_LENGTH__+0xe>
		 (lastTrigerValue <= HAND_TRIGGER_DISTANCE && currentDistance > HAND_TRIGGER_DISTANCE) )
 3f8:	80 91 34 01 	lds	r24, 0x0134	; 0x800134 <currentDistance>
 3fc:	90 91 35 01 	lds	r25, 0x0135	; 0x800135 <currentDistance+0x1>
 400:	81 97       	sbiw	r24, 0x21	; 33
 402:	2c f0       	brlt	.+10     	; 0x40e <__LOCK_REGION_LENGTH__+0xe>
	{
		// Change the number of triggers to zero, since value's are not equal
		numberOfTriggers = 0;
 404:	10 92 31 01 	sts	0x0131, r1	; 0x800131 <numberOfTriggers+0x1>
 408:	10 92 30 01 	sts	0x0130, r1	; 0x800130 <numberOfTriggers>
 40c:	09 c0       	rjmp	.+18     	; 0x420 <__LOCK_REGION_LENGTH__+0x20>
	}
	else numberOfTriggers++;	
 40e:	80 91 30 01 	lds	r24, 0x0130	; 0x800130 <numberOfTriggers>
 412:	90 91 31 01 	lds	r25, 0x0131	; 0x800131 <numberOfTriggers+0x1>
 416:	01 96       	adiw	r24, 0x01	; 1
 418:	90 93 31 01 	sts	0x0131, r25	; 0x800131 <numberOfTriggers+0x1>
 41c:	80 93 30 01 	sts	0x0130, r24	; 0x800130 <numberOfTriggers>
	
	// Update the last trigger
	lastTrigerValue = currentDistance;
 420:	80 91 34 01 	lds	r24, 0x0134	; 0x800134 <currentDistance>
 424:	90 91 35 01 	lds	r25, 0x0135	; 0x800135 <currentDistance+0x1>
 428:	90 93 33 01 	sts	0x0133, r25	; 0x800133 <lastTrigerValue+0x1>
 42c:	80 93 32 01 	sts	0x0132, r24	; 0x800132 <lastTrigerValue>
		
	// Call the trigger again for next round
	UTS_Trigger();
 430:	0e 94 d0 02 	call	0x5a0	; 0x5a0 <UTS_Trigger>
 434:	08 95       	ret

Disassembly of section .text.TMP_isPlaying:

00000574 <TMP_isPlaying>:
}

int TMP_isPlaying()
{
	return numberOfTriggers < MISSED_TRIGGER_DELAY;
 574:	81 e0       	ldi	r24, 0x01	; 1
 576:	20 91 30 01 	lds	r18, 0x0130	; 0x800130 <numberOfTriggers>
 57a:	30 91 31 01 	lds	r19, 0x0131	; 0x800131 <numberOfTriggers+0x1>
 57e:	25 30       	cpi	r18, 0x05	; 5
 580:	31 05       	cpc	r19, r1
 582:	0c f0       	brlt	.+2      	; 0x586 <TMP_isPlaying+0x12>
 584:	80 e0       	ldi	r24, 0x00	; 0
 586:	90 e0       	ldi	r25, 0x00	; 0
 588:	08 95       	ret

Disassembly of section .text.initTimer:

000005dc <initTimer>:
/************************************************************************/
/* Sets all the registers for the ultrasone                             */
/************************************************************************/
static void initTimer()
{
    TCNT2 = 0;              // Set start value for timer to zero
 5dc:	14 bc       	out	0x24, r1	; 36
    TIMSK |= 0b01000000;	// Enable the overflow interrupt for timer 2 
 5de:	87 b7       	in	r24, 0x37	; 55
 5e0:	80 64       	ori	r24, 0x40	; 64
 5e2:	87 bf       	out	0x37, r24	; 55
    TCCR2 = 0b00001100;     // Enable wave form generation with 256 pre-scaler
 5e4:	8c e0       	ldi	r24, 0x0C	; 12
 5e6:	85 bd       	out	0x25, r24	; 37
    sei();                  // Enable interrupts
 5e8:	78 94       	sei
 5ea:	08 95       	ret

Disassembly of section .text.__vector_8:

00000256 <__vector_8>:
/************************************************************************/
/* Interrupt triggered on rising and falling edge,                      */
/* Calculates the distance from the sensor                              */
/************************************************************************/
ISR ( INT7_vect )
{    
 256:	1f 92       	push	r1
 258:	0f 92       	push	r0
 25a:	0f b6       	in	r0, 0x3f	; 63
 25c:	0f 92       	push	r0
 25e:	11 24       	eor	r1, r1
 260:	0b b6       	in	r0, 0x3b	; 59
 262:	0f 92       	push	r0
 264:	2f 93       	push	r18
 266:	3f 93       	push	r19
 268:	4f 93       	push	r20
 26a:	5f 93       	push	r21
 26c:	6f 93       	push	r22
 26e:	7f 93       	push	r23
 270:	8f 93       	push	r24
 272:	9f 93       	push	r25
 274:	af 93       	push	r26
 276:	bf 93       	push	r27
 278:	ef 93       	push	r30
 27a:	ff 93       	push	r31
    // Setting the time from the timer on PE7 going high
    if( PINE & (1 << ECHO_PIN) )
 27c:	0f 9b       	sbis	0x01, 7	; 1
 27e:	04 c0       	rjmp	.+8      	; 0x288 <__vector_8+0x32>
        ticksOnTrigger = TCNT2;
 280:	84 b5       	in	r24, 0x24	; 36
 282:	80 93 36 01 	sts	0x0136, r24	; 0x800136 <ticksOnTrigger>
 286:	17 c0       	rjmp	.+46     	; 0x2b6 <__vector_8+0x60>
    
    else
    {
        unsigned char diff = TCNT2 - ticksOnTrigger;        // Getting the difference from timer and start
 288:	64 b5       	in	r22, 0x24	; 36
 28a:	80 91 36 01 	lds	r24, 0x0136	; 0x800136 <ticksOnTrigger>
 28e:	68 1b       	sub	r22, r24
        
        currentDistance = ( diff * ( 32.0 / TICK_CM ) );    // Calculating cm
 290:	70 e0       	ldi	r23, 0x00	; 0
 292:	80 e0       	ldi	r24, 0x00	; 0
 294:	90 e0       	ldi	r25, 0x00	; 0
 296:	0e 94 b1 01 	call	0x362	; 0x362 <__floatsisf>
 29a:	2b ec       	ldi	r18, 0xCB	; 203
 29c:	3d e3       	ldi	r19, 0x3D	; 61
 29e:	4d e0       	ldi	r20, 0x0D	; 13
 2a0:	5f e3       	ldi	r21, 0x3F	; 63
 2a2:	0e 94 1d 03 	call	0x63a	; 0x63a <__mulsf3>
 2a6:	0e 94 f6 02 	call	0x5ec	; 0x5ec <__fixsfsi>
 2aa:	70 93 35 01 	sts	0x0135, r23	; 0x800135 <currentDistance+0x1>
 2ae:	60 93 34 01 	sts	0x0134, r22	; 0x800134 <currentDistance>
        
        
        ticksOnTrigger = 0;                                 // resetting ticksOnTrigger
 2b2:	10 92 36 01 	sts	0x0136, r1	; 0x800136 <ticksOnTrigger>
    }
    
}
 2b6:	ff 91       	pop	r31
 2b8:	ef 91       	pop	r30
 2ba:	bf 91       	pop	r27
 2bc:	af 91       	pop	r26
 2be:	9f 91       	pop	r25
 2c0:	8f 91       	pop	r24
 2c2:	7f 91       	pop	r23
 2c4:	6f 91       	pop	r22
 2c6:	5f 91       	pop	r21
 2c8:	4f 91       	pop	r20
 2ca:	3f 91       	pop	r19
 2cc:	2f 91       	pop	r18
 2ce:	0f 90       	pop	r0
 2d0:	0b be       	out	0x3b, r0	; 59
 2d2:	0f 90       	pop	r0
 2d4:	0f be       	out	0x3f, r0	; 63
 2d6:	0f 90       	pop	r0
 2d8:	1f 90       	pop	r1
 2da:	18 95       	reti

Disassembly of section .text.__vector_10:

0000058a <__vector_10>:

/************************************************************************/
/* Overflow interrupt for timer 2                                       */
/************************************************************************/
ISR ( TIMER2_OVF_vect )
{
 58a:	1f 92       	push	r1
 58c:	0f 92       	push	r0
 58e:	0f b6       	in	r0, 0x3f	; 63
 590:	0f 92       	push	r0
 592:	11 24       	eor	r1, r1
    TCNT2 = 0; // Resetting timer
 594:	14 bc       	out	0x24, r1	; 36
}
 596:	0f 90       	pop	r0
 598:	0f be       	out	0x3f, r0	; 63
 59a:	0f 90       	pop	r0
 59c:	1f 90       	pop	r1
 59e:	18 95       	reti

Disassembly of section .text.UTS_Init:

00000556 <UTS_Init>:
/************************************************************************/
/* Inits the ultrasone sensor                                           */
/************************************************************************/
void UTS_Init( void )
{
    DDRE |= (1 << TRIGGER_PIN);      // PORTE 0 to output
 556:	82 b1       	in	r24, 0x02	; 2
 558:	81 60       	ori	r24, 0x01	; 1
 55a:	82 b9       	out	0x02, r24	; 2
    DDRE &= ~(1 << ECHO_PIN);        // PORTE 7 to input
 55c:	82 b1       	in	r24, 0x02	; 2
 55e:	8f 77       	andi	r24, 0x7F	; 127
 560:	82 b9       	out	0x02, r24	; 2
    
    // Init Interrupt hardware
    EICRB |= 0x40;					// ISC7 Rising edge and falling edge
 562:	8a b7       	in	r24, 0x3a	; 58
 564:	80 64       	ori	r24, 0x40	; 64
 566:	8a bf       	out	0x3a, r24	; 58
    EIMSK |= 0x80;					// Enable INT7
 568:	89 b7       	in	r24, 0x39	; 57
 56a:	80 68       	ori	r24, 0x80	; 128
 56c:	89 bf       	out	0x39, r24	; 57
    
    initTimer();
 56e:	0e 94 ee 02 	call	0x5dc	; 0x5dc <initTimer>
 572:	08 95       	ret

Disassembly of section .text.UTS_Trigger:

000005a0 <UTS_Trigger>:
/************************************************************************/
/* Triggers the ultrasone sensor for update                             */
/************************************************************************/
void UTS_Trigger( void )
{
    PORTE |= (1 << TRIGGER_PIN);	// Trigger pin high
 5a0:	83 b1       	in	r24, 0x03	; 3
 5a2:	81 60       	ori	r24, 0x01	; 1
 5a4:	83 b9       	out	0x03, r24	; 3
	#else
		//round up by default
		__ticks_dc = (uint32_t)(ceil(fabs(__tmp)));
	#endif

	__builtin_avr_delay_cycles(__ticks_dc);
 5a6:	83 e0       	ldi	r24, 0x03	; 3
 5a8:	8a 95       	dec	r24
 5aa:	f1 f7       	brne	.-4      	; 0x5a8 <UTS_Trigger+0x8>
 5ac:	00 00       	nop
    
    _delay_us(10);                  // 10 micro-seconds delay
    
    PORTE &= ~(1 << TRIGGER_PIN);   // Trigger pin low
 5ae:	83 b1       	in	r24, 0x03	; 3
 5b0:	8e 7f       	andi	r24, 0xFE	; 254
 5b2:	83 b9       	out	0x03, r24	; 3
 5b4:	08 95       	ret

Disassembly of section .text.avrlibc.fplib:

000005ec <__fixsfsi>:
 5ec:	0e 94 1b 02 	call	0x436	; 0x436 <__fixunssfsi>
 5f0:	68 94       	set
 5f2:	b1 11       	cpse	r27, r1
 5f4:	0c 94 fe 02 	jmp	0x5fc	; 0x5fc <__fp_szero>
 5f8:	08 95       	ret

Disassembly of section .text.avrlibc.fplib:

00000436 <__fixunssfsi>:
 436:	0e 94 52 02 	call	0x4a4	; 0x4a4 <__fp_splitA>
 43a:	88 f0       	brcs	.+34     	; 0x45e <__fixunssfsi+0x28>
 43c:	9f 57       	subi	r25, 0x7F	; 127
 43e:	98 f0       	brcs	.+38     	; 0x466 <__fixunssfsi+0x30>
 440:	b9 2f       	mov	r27, r25
 442:	99 27       	eor	r25, r25
 444:	b7 51       	subi	r27, 0x17	; 23
 446:	b0 f0       	brcs	.+44     	; 0x474 <__fixunssfsi+0x3e>
 448:	e1 f0       	breq	.+56     	; 0x482 <__fixunssfsi+0x4c>
 44a:	66 0f       	add	r22, r22
 44c:	77 1f       	adc	r23, r23
 44e:	88 1f       	adc	r24, r24
 450:	99 1f       	adc	r25, r25
 452:	1a f0       	brmi	.+6      	; 0x45a <__fixunssfsi+0x24>
 454:	ba 95       	dec	r27
 456:	c9 f7       	brne	.-14     	; 0x44a <__fixunssfsi+0x14>
 458:	14 c0       	rjmp	.+40     	; 0x482 <__fixunssfsi+0x4c>
 45a:	b1 30       	cpi	r27, 0x01	; 1
 45c:	91 f0       	breq	.+36     	; 0x482 <__fixunssfsi+0x4c>
 45e:	0e 94 fd 02 	call	0x5fa	; 0x5fa <__fp_zero>
 462:	b1 e0       	ldi	r27, 0x01	; 1
 464:	08 95       	ret
 466:	0c 94 fd 02 	jmp	0x5fa	; 0x5fa <__fp_zero>
 46a:	67 2f       	mov	r22, r23
 46c:	78 2f       	mov	r23, r24
 46e:	88 27       	eor	r24, r24
 470:	b8 5f       	subi	r27, 0xF8	; 248
 472:	39 f0       	breq	.+14     	; 0x482 <__fixunssfsi+0x4c>
 474:	b9 3f       	cpi	r27, 0xF9	; 249
 476:	cc f3       	brlt	.-14     	; 0x46a <__fixunssfsi+0x34>
 478:	86 95       	lsr	r24
 47a:	77 95       	ror	r23
 47c:	67 95       	ror	r22
 47e:	b3 95       	inc	r27
 480:	d9 f7       	brne	.-10     	; 0x478 <__fixunssfsi+0x42>
 482:	3e f4       	brtc	.+14     	; 0x492 <__fixunssfsi+0x5c>
 484:	90 95       	com	r25
 486:	80 95       	com	r24
 488:	70 95       	com	r23
 48a:	61 95       	neg	r22
 48c:	7f 4f       	sbci	r23, 0xFF	; 255
 48e:	8f 4f       	sbci	r24, 0xFF	; 255
 490:	9f 4f       	sbci	r25, 0xFF	; 255
 492:	08 95       	ret

Disassembly of section .text.avrlibc.fplib:

0000035e <__floatunsisf>:
 35e:	e8 94       	clt
 360:	09 c0       	rjmp	.+18     	; 0x374 <__floatsisf+0x12>

00000362 <__floatsisf>:
 362:	97 fb       	bst	r25, 7
 364:	3e f4       	brtc	.+14     	; 0x374 <__floatsisf+0x12>
 366:	90 95       	com	r25
 368:	80 95       	com	r24
 36a:	70 95       	com	r23
 36c:	61 95       	neg	r22
 36e:	7f 4f       	sbci	r23, 0xFF	; 255
 370:	8f 4f       	sbci	r24, 0xFF	; 255
 372:	9f 4f       	sbci	r25, 0xFF	; 255
 374:	99 23       	and	r25, r25
 376:	a9 f0       	breq	.+42     	; 0x3a2 <__floatsisf+0x40>
 378:	f9 2f       	mov	r31, r25
 37a:	96 e9       	ldi	r25, 0x96	; 150
 37c:	bb 27       	eor	r27, r27
 37e:	93 95       	inc	r25
 380:	f6 95       	lsr	r31
 382:	87 95       	ror	r24
 384:	77 95       	ror	r23
 386:	67 95       	ror	r22
 388:	b7 95       	ror	r27
 38a:	f1 11       	cpse	r31, r1
 38c:	f8 cf       	rjmp	.-16     	; 0x37e <__floatsisf+0x1c>
 38e:	fa f4       	brpl	.+62     	; 0x3ce <__floatsisf+0x6c>
 390:	bb 0f       	add	r27, r27
 392:	11 f4       	brne	.+4      	; 0x398 <__floatsisf+0x36>
 394:	60 ff       	sbrs	r22, 0
 396:	1b c0       	rjmp	.+54     	; 0x3ce <__floatsisf+0x6c>
 398:	6f 5f       	subi	r22, 0xFF	; 255
 39a:	7f 4f       	sbci	r23, 0xFF	; 255
 39c:	8f 4f       	sbci	r24, 0xFF	; 255
 39e:	9f 4f       	sbci	r25, 0xFF	; 255
 3a0:	16 c0       	rjmp	.+44     	; 0x3ce <__floatsisf+0x6c>
 3a2:	88 23       	and	r24, r24
 3a4:	11 f0       	breq	.+4      	; 0x3aa <__floatsisf+0x48>
 3a6:	96 e9       	ldi	r25, 0x96	; 150
 3a8:	11 c0       	rjmp	.+34     	; 0x3cc <__floatsisf+0x6a>
 3aa:	77 23       	and	r23, r23
 3ac:	21 f0       	breq	.+8      	; 0x3b6 <__floatsisf+0x54>
 3ae:	9e e8       	ldi	r25, 0x8E	; 142
 3b0:	87 2f       	mov	r24, r23
 3b2:	76 2f       	mov	r23, r22
 3b4:	05 c0       	rjmp	.+10     	; 0x3c0 <__floatsisf+0x5e>
 3b6:	66 23       	and	r22, r22
 3b8:	71 f0       	breq	.+28     	; 0x3d6 <__floatsisf+0x74>
 3ba:	96 e8       	ldi	r25, 0x86	; 134
 3bc:	86 2f       	mov	r24, r22
 3be:	70 e0       	ldi	r23, 0x00	; 0
 3c0:	60 e0       	ldi	r22, 0x00	; 0
 3c2:	2a f0       	brmi	.+10     	; 0x3ce <__floatsisf+0x6c>
 3c4:	9a 95       	dec	r25
 3c6:	66 0f       	add	r22, r22
 3c8:	77 1f       	adc	r23, r23
 3ca:	88 1f       	adc	r24, r24
 3cc:	da f7       	brpl	.-10     	; 0x3c4 <__floatsisf+0x62>
 3ce:	88 0f       	add	r24, r24
 3d0:	96 95       	lsr	r25
 3d2:	87 95       	ror	r24
 3d4:	97 f9       	bld	r25, 7
 3d6:	08 95       	ret

Disassembly of section .text.avrlibc.fplib:

00000494 <__fp_split3>:
 494:	57 fd       	sbrc	r21, 7
 496:	90 58       	subi	r25, 0x80	; 128
 498:	44 0f       	add	r20, r20
 49a:	55 1f       	adc	r21, r21
 49c:	59 f0       	breq	.+22     	; 0x4b4 <__fp_splitA+0x10>
 49e:	5f 3f       	cpi	r21, 0xFF	; 255
 4a0:	71 f0       	breq	.+28     	; 0x4be <__fp_splitA+0x1a>
 4a2:	47 95       	ror	r20

000004a4 <__fp_splitA>:
 4a4:	88 0f       	add	r24, r24
 4a6:	97 fb       	bst	r25, 7
 4a8:	99 1f       	adc	r25, r25
 4aa:	61 f0       	breq	.+24     	; 0x4c4 <__fp_splitA+0x20>
 4ac:	9f 3f       	cpi	r25, 0xFF	; 255
 4ae:	79 f0       	breq	.+30     	; 0x4ce <__fp_splitA+0x2a>
 4b0:	87 95       	ror	r24
 4b2:	08 95       	ret
 4b4:	12 16       	cp	r1, r18
 4b6:	13 06       	cpc	r1, r19
 4b8:	14 06       	cpc	r1, r20
 4ba:	55 1f       	adc	r21, r21
 4bc:	f2 cf       	rjmp	.-28     	; 0x4a2 <__fp_split3+0xe>
 4be:	46 95       	lsr	r20
 4c0:	f1 df       	rcall	.-30     	; 0x4a4 <__fp_splitA>
 4c2:	08 c0       	rjmp	.+16     	; 0x4d4 <__fp_splitA+0x30>
 4c4:	16 16       	cp	r1, r22
 4c6:	17 06       	cpc	r1, r23
 4c8:	18 06       	cpc	r1, r24
 4ca:	99 1f       	adc	r25, r25
 4cc:	f1 cf       	rjmp	.-30     	; 0x4b0 <__fp_splitA+0xc>
 4ce:	86 95       	lsr	r24
 4d0:	71 05       	cpc	r23, r1
 4d2:	61 05       	cpc	r22, r1
 4d4:	08 94       	sec
 4d6:	08 95       	ret

Disassembly of section .text.avrlibc.fplib:

000005fa <__fp_zero>:
 5fa:	e8 94       	clt

000005fc <__fp_szero>:
 5fc:	bb 27       	eor	r27, r27
 5fe:	66 27       	eor	r22, r22
 600:	77 27       	eor	r23, r23
 602:	cb 01       	movw	r24, r22
 604:	97 f9       	bld	r25, 7
 606:	08 95       	ret

Disassembly of section .text.avrlibc.fplib:

0000063a <__mulsf3>:
 63a:	0e 94 78 00 	call	0xf0	; 0xf0 <__data_load_end>
 63e:	0c 94 9a 02 	jmp	0x534	; 0x534 <__fp_round>

Disassembly of section .text.avrlibc.fplib:

000000f0 <__mulsf3x>:
  f0:	0f c0       	rjmp	.+30     	; 0x110 <__mulsf3x+0x20>
  f2:	0e 94 04 03 	call	0x608	; 0x608 <__fp_pscA>
  f6:	38 f0       	brcs	.+14     	; 0x106 <__mulsf3x+0x16>
  f8:	0e 94 0b 03 	call	0x616	; 0x616 <__fp_pscB>
  fc:	20 f0       	brcs	.+8      	; 0x106 <__mulsf3x+0x16>
  fe:	95 23       	and	r25, r21
 100:	11 f0       	breq	.+4      	; 0x106 <__mulsf3x+0x16>
 102:	0c 94 12 03 	jmp	0x624	; 0x624 <__fp_inf>
 106:	0c 94 21 03 	jmp	0x642	; 0x642 <__fp_nan>
 10a:	11 24       	eor	r1, r1
 10c:	0c 94 fe 02 	jmp	0x5fc	; 0x5fc <__fp_szero>
 110:	0e 94 4a 02 	call	0x494	; 0x494 <__fp_split3>
 114:	70 f3       	brcs	.-36     	; 0xf2 <__mulsf3x+0x2>

00000116 <__mulsf3_pse>:
 116:	95 9f       	mul	r25, r21
 118:	c1 f3       	breq	.-16     	; 0x10a <__mulsf3x+0x1a>
 11a:	95 0f       	add	r25, r21
 11c:	50 e0       	ldi	r21, 0x00	; 0
 11e:	55 1f       	adc	r21, r21
 120:	62 9f       	mul	r22, r18
 122:	f0 01       	movw	r30, r0
 124:	72 9f       	mul	r23, r18
 126:	bb 27       	eor	r27, r27
 128:	f0 0d       	add	r31, r0
 12a:	b1 1d       	adc	r27, r1
 12c:	63 9f       	mul	r22, r19
 12e:	aa 27       	eor	r26, r26
 130:	f0 0d       	add	r31, r0
 132:	b1 1d       	adc	r27, r1
 134:	aa 1f       	adc	r26, r26
 136:	64 9f       	mul	r22, r20
 138:	66 27       	eor	r22, r22
 13a:	b0 0d       	add	r27, r0
 13c:	a1 1d       	adc	r26, r1
 13e:	66 1f       	adc	r22, r22
 140:	82 9f       	mul	r24, r18
 142:	22 27       	eor	r18, r18
 144:	b0 0d       	add	r27, r0
 146:	a1 1d       	adc	r26, r1
 148:	62 1f       	adc	r22, r18
 14a:	73 9f       	mul	r23, r19
 14c:	b0 0d       	add	r27, r0
 14e:	a1 1d       	adc	r26, r1
 150:	62 1f       	adc	r22, r18
 152:	83 9f       	mul	r24, r19
 154:	a0 0d       	add	r26, r0
 156:	61 1d       	adc	r22, r1
 158:	22 1f       	adc	r18, r18
 15a:	74 9f       	mul	r23, r20
 15c:	33 27       	eor	r19, r19
 15e:	a0 0d       	add	r26, r0
 160:	61 1d       	adc	r22, r1
 162:	23 1f       	adc	r18, r19
 164:	84 9f       	mul	r24, r20
 166:	60 0d       	add	r22, r0
 168:	21 1d       	adc	r18, r1
 16a:	82 2f       	mov	r24, r18
 16c:	76 2f       	mov	r23, r22
 16e:	6a 2f       	mov	r22, r26
 170:	11 24       	eor	r1, r1
 172:	9f 57       	subi	r25, 0x7F	; 127
 174:	50 40       	sbci	r21, 0x00	; 0
 176:	9a f0       	brmi	.+38     	; 0x19e <__mulsf3_pse+0x88>
 178:	f1 f0       	breq	.+60     	; 0x1b6 <__mulsf3_pse+0xa0>
 17a:	88 23       	and	r24, r24
 17c:	4a f0       	brmi	.+18     	; 0x190 <__mulsf3_pse+0x7a>
 17e:	ee 0f       	add	r30, r30
 180:	ff 1f       	adc	r31, r31
 182:	bb 1f       	adc	r27, r27
 184:	66 1f       	adc	r22, r22
 186:	77 1f       	adc	r23, r23
 188:	88 1f       	adc	r24, r24
 18a:	91 50       	subi	r25, 0x01	; 1
 18c:	50 40       	sbci	r21, 0x00	; 0
 18e:	a9 f7       	brne	.-22     	; 0x17a <__mulsf3_pse+0x64>
 190:	9e 3f       	cpi	r25, 0xFE	; 254
 192:	51 05       	cpc	r21, r1
 194:	80 f0       	brcs	.+32     	; 0x1b6 <__mulsf3_pse+0xa0>
 196:	0c 94 12 03 	jmp	0x624	; 0x624 <__fp_inf>
 19a:	0c 94 fe 02 	jmp	0x5fc	; 0x5fc <__fp_szero>
 19e:	5f 3f       	cpi	r21, 0xFF	; 255
 1a0:	e4 f3       	brlt	.-8      	; 0x19a <__mulsf3_pse+0x84>
 1a2:	98 3e       	cpi	r25, 0xE8	; 232
 1a4:	d4 f3       	brlt	.-12     	; 0x19a <__mulsf3_pse+0x84>
 1a6:	86 95       	lsr	r24
 1a8:	77 95       	ror	r23
 1aa:	67 95       	ror	r22
 1ac:	b7 95       	ror	r27
 1ae:	f7 95       	ror	r31
 1b0:	e7 95       	ror	r30
 1b2:	9f 5f       	subi	r25, 0xFF	; 255
 1b4:	c1 f7       	brne	.-16     	; 0x1a6 <__mulsf3_pse+0x90>
 1b6:	fe 2b       	or	r31, r30
 1b8:	88 0f       	add	r24, r24
 1ba:	91 1d       	adc	r25, r1
 1bc:	96 95       	lsr	r25
 1be:	87 95       	ror	r24
 1c0:	97 f9       	bld	r25, 7
 1c2:	08 95       	ret

Disassembly of section .text.avrlibc.fplib:

00000624 <__fp_inf>:
 624:	97 f9       	bld	r25, 7
 626:	9f 67       	ori	r25, 0x7F	; 127
 628:	80 e8       	ldi	r24, 0x80	; 128
 62a:	70 e0       	ldi	r23, 0x00	; 0
 62c:	60 e0       	ldi	r22, 0x00	; 0
 62e:	08 95       	ret

Disassembly of section .text.avrlibc.fplib:

00000642 <__fp_nan>:
 642:	9f ef       	ldi	r25, 0xFF	; 255
 644:	80 ec       	ldi	r24, 0xC0	; 192
 646:	08 95       	ret

Disassembly of section .text.avrlibc.fplib:

00000608 <__fp_pscA>:
 608:	00 24       	eor	r0, r0
 60a:	0a 94       	dec	r0
 60c:	16 16       	cp	r1, r22
 60e:	17 06       	cpc	r1, r23
 610:	18 06       	cpc	r1, r24
 612:	09 06       	cpc	r0, r25
 614:	08 95       	ret

Disassembly of section .text.avrlibc.fplib:

00000616 <__fp_pscB>:
 616:	00 24       	eor	r0, r0
 618:	0a 94       	dec	r0
 61a:	12 16       	cp	r1, r18
 61c:	13 06       	cpc	r1, r19
 61e:	14 06       	cpc	r1, r20
 620:	05 06       	cpc	r0, r21
 622:	08 95       	ret

Disassembly of section .text.avrlibc.fplib:

00000534 <__fp_round>:
 534:	09 2e       	mov	r0, r25
 536:	03 94       	inc	r0
 538:	00 0c       	add	r0, r0
 53a:	11 f4       	brne	.+4      	; 0x540 <__fp_round+0xc>
 53c:	88 23       	and	r24, r24
 53e:	52 f0       	brmi	.+20     	; 0x554 <__fp_round+0x20>
 540:	bb 0f       	add	r27, r27
 542:	40 f4       	brcc	.+16     	; 0x554 <__fp_round+0x20>
 544:	bf 2b       	or	r27, r31
 546:	11 f4       	brne	.+4      	; 0x54c <__fp_round+0x18>
 548:	60 ff       	sbrs	r22, 0
 54a:	04 c0       	rjmp	.+8      	; 0x554 <__fp_round+0x20>
 54c:	6f 5f       	subi	r22, 0xFF	; 255
 54e:	7f 4f       	sbci	r23, 0xFF	; 255
 550:	8f 4f       	sbci	r24, 0xFF	; 255
 552:	9f 4f       	sbci	r25, 0xFF	; 255
 554:	08 95       	ret
